; Function Attrs: nounwind uwtable
define noalias noundef nonnull ptr @l_Lean_IR_EmitC_emitDeclInit___lambda__1(ptr noundef %0, ptr noundef %1, ptr readnone captures(none) %2, ptr readnone captures(none) %3, ptr noundef %4) local_unnamed_addr #0 {
  %6 = load ptr, ptr @l_Lean_IR_EmitC_emitMainFn___lambda__2___closed__7, align 8, !tbaa !4
  %7 = tail call ptr @lean_string_append(ptr noundef %4, ptr noundef %6) #5
  %8 = load ptr, ptr @l_Lean_IR_EmitC_emitLn___rarg___closed__1, align 8, !tbaa !4
  %9 = tail call ptr @lean_string_append(ptr noundef %7, ptr noundef %8) #5
  %10 = load ptr, ptr @l_Lean_IR_EmitC_emitDeclInit___lambda__1___closed__1, align 8, !tbaa !4
  %11 = tail call ptr @l_Lean_getInitFnNameForCore_x3f(ptr noundef %0, ptr noundef %10, ptr noundef %1) #5
  %12 = ptrtoint ptr %11 to i64
  %13 = and i64 %12, 1
  %.not.i22 = icmp eq i64 %13, 0
  br i1 %.not.i22, label %lean_obj_tag.exit.thread, label %lean_obj_tag.exit

lean_obj_tag.exit:                                ; preds = %5
  %14 = and i64 %12, 8589934590
  %15 = icmp eq i64 %14, 0
  br i1 %15, label %18, label %lean_dec.exit

lean_obj_tag.exit.thread:                         ; preds = %5
  %16 = getelementptr i8, ptr %11, i64 4
  %.val.i = load i32, ptr %16, align 4
  %17 = icmp ult i32 %.val.i, 16777216
  br i1 %17, label %18, label %.thread

18:                                               ; preds = %lean_obj_tag.exit.thread, %lean_obj_tag.exit
  tail call void @lean_inc_heartbeat() #5
  %19 = tail call noalias ptr @mi_malloc_small(i64 noundef 24) #5
  %20 = icmp eq ptr %19, null
  br i1 %20, label %21, label %lean_alloc_ctor.exit

21:                                               ; preds = %18
  tail call void @lean_internal_panic_out_of_memory() #6
  unreachable

.thread:                                          ; preds = %lean_obj_tag.exit.thread
  %22 = load i32, ptr %11, align 4, !tbaa !8
  %23 = icmp sgt i32 %22, 1
  br i1 %23, label %24, label %26, !prof !11

24:                                               ; preds = %.thread
  %25 = add nsw i32 %22, -1
  store i32 %25, ptr %11, align 4, !tbaa !8
  br label %lean_dec.exit

26:                                               ; preds = %.thread
  %.not.i = icmp eq i32 %22, 0
  br i1 %.not.i, label %lean_dec.exit, label %27

27:                                               ; preds = %26
  tail call void @lean_dec_ref_cold(ptr noundef nonnull %11) #5
  br label %lean_dec.exit

lean_dec.exit:                                    ; preds = %lean_obj_tag.exit, %27, %26, %24
  %28 = load ptr, ptr @l_Lean_IR_EmitC_emitMainFn___lambda__1___closed__1, align 8, !tbaa !4
  %29 = tail call ptr @lean_string_append(ptr noundef %9, ptr noundef %28) #5
  tail call void @lean_inc_heartbeat() #5
  %30 = tail call noalias ptr @mi_malloc_small(i64 noundef 24) #5
  %31 = icmp eq ptr %30, null
  br i1 %31, label %32, label %lean_alloc_ctor.exit

32:                                               ; preds = %lean_dec.exit
  tail call void @lean_internal_panic_out_of_memory() #6
  unreachable

lean_alloc_ctor.exit:                             ; preds = %lean_dec.exit, %18
  %.sink31 = phi ptr [ %19, %18 ], [ %30, %lean_dec.exit ]
  %.sink = phi ptr [ %9, %18 ], [ %29, %lean_dec.exit ]
  %33 = getelementptr inbounds nuw i8, ptr %.sink31, i64 4
  store i32 1, ptr %.sink31, align 4, !tbaa !8
  store i32 131096, ptr %33, align 4
  %34 = getelementptr inbounds nuw i8, ptr %.sink31, i64 8
  store ptr inttoptr (i64 1 to ptr), ptr %34, align 8, !tbaa !4
  %35 = getelementptr inbounds nuw i8, ptr %.sink31, i64 16
  store ptr %.sink, ptr %35, align 8, !tbaa !4
  ret ptr %.sink31
}